S'Make three fourths of a cross,\rAnd a circle complete,\rAnd let two semicircles\rOn a perpendicular meet;\rNext add a triangle\rThat stands on two feet;\rNext two semicircles and a circle complete.'
p0
.